ccopy_reg
_reconstructor
p0
(cargparse
Namespace
p1
c__builtin__
object
p2
Ntp3
Rp4
(dp5
S'category'
p6
S'22'
p7
sS'auth_host_port'
p8
(lp9
I8080
aI8090
asS'title'
p10
S'2015 08 06'
p11
sS'privacyStatus'
p12
S'unlisted'
p13
sS'file'
p14
S'2015_08_06.mpg'
p15
sS'keywords'
p16
S''
p17
sS'auth_host_name'
p18
S'localhost'
p19
sS'noauth_local_webserver'
p20
I01
sS'logging_level'
p21
S'ERROR'
p22
sS'description'
p23
S'Test Description'
p24
sb.