(lp0
cnumpy.core.multiarray
scalar
p1
(cnumpy
dtype
p2
(S'u4'
p3
I0
I1
tp4
Rp5
(I3
S'<'
p6
NNNI-1
I-1
I0
tp7
bS'B~\x82\x11'
p8
tp9
Rp10
ag1
(g5
S'F=\x7f\x11'
p11
tp12
Rp13
ag1
(g5
S'y\xb3\x0f\x11'
p14
tp15
Rp16
ag1
(g5
S'\xec\xcf\x01\x11'
p17
tp18
Rp19
ag1
(g5
S'@\xf1\xff\x10'
p20
tp21
Rp22
ag1
(g5
S'\xd4\x1ds\x11'
p23
tp24
Rp25
ag1
(g5
S'\x8c\xc2q\x11'
p26
tp27
Rp28
ag1
(g5
S'\xa0\x9fv\x11'
p29
tp30
Rp31
ag1
(g5
S'8\x83~\x11'
p32
tp33
Rp34
ag1
(g5
S'5\xa8\x86\x11'
p35
tp36
Rp37
ag1
(g5
S'x\x0bt\x11'
p38
tp39
Rp40
ag1
(g5
S'D\x98\x05\x11'
p41
tp42
Rp43
ag1
(g5
S'\xc5\x01\xfa\x10'
p44
tp45
Rp46
ag1
(g5
S'\xc0\x82\x05\x11'
p47
tp48
Rp49
ag1
(g5
S'e\x11\x0c\x11'
p50
tp51
Rp52
ag1
(g5
S'0m\n\x11'
p53
tp54
Rp55
ag1
(g5
S'\xb9\x97\x0c\x11'
p56
tp57
Rp58
ag1
(g5
S'\xba[\x08\x11'
p59
tp60
Rp61
ag1
(g5
S'0n\x0e\x11'
p62
tp63
Rp64
ag1
(g5
S'\x98E\x87\x11'
p65
tp66
Rp67
ag1
(g5
S'V.\x8a\x11'
p68
tp69
Rp70
ag1
(g5
S'ys\x91\x11'
p71
tp72
Rp73
ag1
(g5
S':\x90\x9a\x11'
p74
tp75
Rp76
ag1
(g5
S'\xa8M\x99\x11'
p77
tp78
Rp79
ag1
(g5
S'7\x82\x88\x11'
p80
tp81
Rp82
ag1
(g5
S'\x89\xb0\x8a\x11'
p83
tp84
Rp85
ag1
(g5
S'\xb1\xce\x8f\x11'
p86
tp87
Rp88
ag1
(g5
S'\xf1\xf6\x90\x11'
p89
tp90
Rp91
ag1
(g5
S'\x91\x93\x92\x11'
p92
tp93
Rp94
ag1
(g5
S'v\xac\x8c\x11'
p95
tp96
Rp97
ag1
(g5
S'n\r \x11'
p98
tp99
Rp100
ag1
(g5
S'\xfd\xb6"\x11'
p101
tp102
Rp103
ag1
(g5
S'\xa2\x9a$\x11'
p104
tp105
Rp106
ag1
(g5
S'?=\x17\x11'
p107
tp108
Rp109
ag1
(g5
S'$l\x86\x11'
p110
tp111
Rp112
ag1
(g5
S' \x83\x8d\x11'
p113
tp114
Rp115
ag1
(g5
S'\xea\xa9\x93\x11'
p116
tp117
Rp118
ag1
(g5
S'`n\xa0\x11'
p119
tp120
Rp121
ag1
(g5
S'\x06\xdf\xa7\x11'
p122
tp123
Rp124
ag1
(g5
S'\xca\xa9\xab\x11'
p125
tp126
Rp127
ag1
(g5
S'\x8ec\xac\x11'
p128
tp129
Rp130
ag1
(g5
S'n\x8f5\x11'
p131
tp132
Rp133
ag1
(g5
S'\xd7\xb6\xa6\x11'
p134
tp135
Rp136
ag1
(g5
S'Z\x97\x9f\x11'
p137
tp138
Rp139
ag1
(g5
S'\xfd\xce\x9c\x11'
p140
tp141
Rp142
ag1
(g5
S'\xf3U\x8f\x11'
p143
tp144
Rp145
ag1
(g5
S'\x90\xeb\x8a\x11'
p146
tp147
Rp148
ag1
(g5
S'nf\x9e\x11'
p149
tp150
Rp151
ag1
(g5
S's,\xa0\x11'
p152
tp153
Rp154
ag1
(g5
S'\x82\xe8\xa1\x11'
p155
tp156
Rp157
ag1
(g5
S'Hu\xa4\x11'
p158
tp159
Rp160
ag1
(g5
S'\x02.\xa5\x11'
p161
tp162
Rp163
ag1
(g5
S'\x13\x80\xa6\x11'
p164
tp165
Rp166
ag1
(g5
S'\x12\xd1\x9d\x11'
p167
tp168
Rp169
ag1
(g5
S'S\x81\x9e\x11'
p170
tp171
Rp172
ag1
(g5
S'w~\xa1\x11'
p173
tp174
Rp175
ag1
(g5
S'j\xf3\xaf\x11'
p176
tp177
Rp178
ag1
(g5
S'\xff\xdf5\x11'
p179
tp180
Rp181
ag1
(g5
S'D\x1d@\x11'
p182
tp183
Rp184
ag1
(g5
S'\x80\xde8\x11'
p185
tp186
Rp187
ag1
(g5
S'\x8e\xab=\x11'
p188
tp189
Rp190
ag1
(g5
S'\xb4\x1b/\x11'
p191
tp192
Rp193
ag1
(g5
S'\xdf\x13-\x11'
p194
tp195
Rp196
ag1
(g5
S'\xad\xb8:\x11'
p197
tp198
Rp199
ag1
(g5
S'\xafn<\x11'
p200
tp201
Rp202
ag1
(g5
S'\x92\x97B\x11'
p203
tp204
Rp205
ag1
(g5
S'&sG\x11'
p206
tp207
Rp208
ag1
(g5
S'\xf0\xccG\x11'
p209
tp210
Rp211
ag1
(g5
S'\x87zF\x11'
p212
tp213
Rp214
ag1
(g5
S'\x82\xde=\x11'
p215
tp216
Rp217
ag1
(g5
S'\xd7\xde:\x11'
p218
tp219
Rp220
ag1
(g5
S'~A8\x11'
p221
tp222
Rp223
ag1
(g5
S'\xc1V;\x11'
p224
tp225
Rp226
ag1
(g5
S'\xbe\x89@\x11'
p227
tp228
Rp229
ag1
(g5
S'\x06==\x11'
p230
tp231
Rp232
ag1
(g5
S'\xfc\xbdC\x11'
p233
tp234
Rp235
ag1
(g5
S'\xa0_E\x11'
p236
tp237
Rp238
ag1
(g5
S'\xbb&C\x11'
p239
tp240
Rp241
ag1
(g5
S'=)J\x11'
p242
tp243
Rp244
ag1
(g5
S'\x84\xa6J\x11'
p245
tp246
Rp247
ag1
(g5
S'\xdd>M\x11'
p248
tp249
Rp250
ag1
(g5
S'\xac\xadP\x11'
p251
tp252
Rp253
ag1
(g5
S'>HL\x11'
p254
tp255
Rp256
ag1
(g5
S'\xeb\x0cM\x11'
p257
tp258
Rp259
ag1
(g5
S'\x8c\xabY\x11'
p260
tp261
Rp262
ag1
(g5
S'u\xd7\\\x11'
p263
tp264
Rp265
ag1
(g5
S'\xa1\x0cf\x11'
p266
tp267
Rp268
ag1
(g5
S'*\xf8f\x11'
p269
tp270
Rp271
ag1
(g5
S'\xd1km\x11'
p272
tp273
Rp274
ag1
(g5
S'\xd9|e\x11'
p275
tp276
Rp277
ag1
(g5
S'ycl\x11'
p278
tp279
Rp280
ag1
(g5
S'\xab\xa1k\x11'
p281
tp282
Rp283
ag1
(g5
S'\xdc4q\x11'
p284
tp285
Rp286
ag1
(g5
S'\xbc8l\x11'
p287
tp288
Rp289
ag1
(g5
S'\xcf\xaa\x81\x11'
p290
tp291
Rp292
ag1
(g5
S'\xf3\xff}\x11'
p293
tp294
Rp295
ag1
(g5
S'\xf9|t\x11'
p296
tp297
Rp298
ag1
(g5
S'\x9e\xa0s\x11'
p299
tp300
Rp301
ag1
(g5
S'\xfeR\x81\x11'
p302
tp303
Rp304
ag1
(g5
S'\xdb\xcb|\x11'
p305
tp306
Rp307
ag1
(g5
S'\xaf\xeev\x11'
p308
tp309
Rp310
ag1
(g5
S'\xb9\xa2{\x11'
p311
tp312
Rp313
ag1
(g5
S'~O\x7f\x11'
p314
tp315
Rp316
ag1
(g5
S'\xc4\x17\x97\x11'
p317
tp318
Rp319
ag1
(g5
S'\xfa\x0e\x80\x11'
p320
tp321
Rp322
ag1
(g5
S'\xd2\xd2~\x11'
p323
tp324
Rp325
ag1
(g5
S'\x18\x19\x83\x11'
p326
tp327
Rp328
ag1
(g5
S'\xa4t\x97\x11'
p329
tp330
Rp331
ag1
(g5
S'f\xff\x93\x11'
p332
tp333
Rp334
ag1
(g5
S'\x14\xe6\x85\x11'
p335
tp336
Rp337
ag1
(g5
S'\x98\xc0\x8b\x11'
p338
tp339
Rp340
ag1
(g5
S'X\xd0\x96\x11'
p341
tp342
Rp343
ag1
(g5
S'\xb6\x1d\x82\x11'
p344
tp345
Rp346
ag1
(g5
S'\x8ap\x84\x11'
p347
tp348
Rp349
ag1
(g5
S'1\x11\x93\x11'
p350
tp351
Rp352
ag1
(g5
S'\xdb\xc9\x8f\x11'
p353
tp354
Rp355
ag1
(g5
S'\xe4\xde~\x11'
p356
tp357
Rp358
ag1
(g5
S'\x11]\x82\x11'
p359
tp360
Rp361
ag1
(g5
S'\x10\x87\x8e\x11'
p362
tp363
Rp364
ag1
(g5
S'\xf4\x0b\x80\x11'
p365
tp366
Rp367
ag1
(g5
S':\xa2\x88\x11'
p368
tp369
Rp370
ag1
(g5
S'[\x93\x8e\x11'
p371
tp372
Rp373
ag1
(g5
S'i\x8f\x95\x11'
p374
tp375
Rp376
ag1
(g5
S'\xc7\xfd\x90\x11'
p377
tp378
Rp379
ag1
(g5
S'\xeb\xef\x8c\x11'
p380
tp381
Rp382
ag1
(g5
S'/\xd2\xa0\x11'
p383
tp384
Rp385
ag1
(g5
S'!\xc1\x9e\x11'
p386
tp387
Rp388
ag1
(g5
S'\x18\xb6\x8e\x11'
p389
tp390
Rp391
ag1
(g5
S'\xcc\xe9\x98\x11'
p392
tp393
Rp394
ag1
(g5
S'\xf1\x9c\x95\x11'
p395
tp396
Rp397
ag1
(g5
S'/#\x94\x11'
p398
tp399
Rp400
ag1
(g5
S')\xf0\x8c\x11'
p401
tp402
Rp403
ag1
(g5
S'\xe6\xa4\x84\x11'
p404
tp405
Rp406
ag1
(g5
S'\xb1\x94\x8c\x11'
p407
tp408
Rp409
ag1
(g5
S'QV\x8a\x11'
p410
tp411
Rp412
ag1
(g5
S'\x95\xaf\x86\x11'
p413
tp414
Rp415
ag1
(g5
S'\xc8:\x84\x11'
p416
tp417
Rp418
ag1
(g5
S'o\x95\x8c\x11'
p419
tp420
Rp421
ag1
(g5
S'\xef\xe0\x8f\x11'
p422
tp423
Rp424
ag1
(g5
S'\xa0G\x8a\x11'
p425
tp426
Rp427
ag1
(g5
S'`M\x90\x11'
p428
tp429
Rp430
ag1
(g5
S'[\xbc\x8e\x11'
p431
tp432
Rp433
ag1
(g5
S'|\xe5\x90\x11'
p434
tp435
Rp436
ag1
(g5
S'\xca\xbf\x98\x11'
p437
tp438
Rp439
ag1
(g5
S'W\x8a\x9b\x11'
p440
tp441
Rp442
ag1
(g5
S'\xf5B\x9d\x11'
p443
tp444
Rp445
ag1
(g5
S'\xe3\xe9\xa3\x11'
p446
tp447
Rp448
ag1
(g5
S'?\x95\x91\x11'
p449
tp450
Rp451
ag1
(g5
S'\xeb\xde\x8c\x11'
p452
tp453
Rp454
ag1
(g5
S'\xeb\x9a\x8f\x11'
p455
tp456
Rp457
ag1
(g5
S'\x1d\xf8\x89\x11'
p458
tp459
Rp460
ag1
(g5
S'F\xce\x88\x11'
p461
tp462
Rp463
ag1
(g5
S'&]\x8b\x11'
p464
tp465
Rp466
ag1
(g5
S'\x9c\xb5\x81\x11'
p467
tp468
Rp469
ag1
(g5
S'\xfe\x15\x93\x11'
p470
tp471
Rp472
ag1
(g5
S'\xa7\x92\x81\x11'
p473
tp474
Rp475
ag1
(g5
S'\x89c\x8a\x11'
p476
tp477
Rp478
ag1
(g5
S'\xea\x8a\x88\x11'
p479
tp480
Rp481
ag1
(g5
S'G|}\x11'
p482
tp483
Rp484
ag1
(g5
S'\x11cz\x11'
p485
tp486
Rp487
ag1
(g5
S'F.s\x11'
p488
tp489
Rp490
ag1
(g5
S'MP\x81\x11'
p491
tp492
Rp493
ag1
(g5
S'D\xe6\x88\x11'
p494
tp495
Rp496
ag1
(g5
S'i\x98|\x11'
p497
tp498
Rp499
ag1
(g5
S'B\xefw\x11'
p500
tp501
Rp502
ag1
(g5
S'\xf5\xc5r\x11'
p503
tp504
Rp505
ag1
(g5
S'\xaf\xdc\x8c\x11'
p506
tp507
Rp508
ag1
(g5
S'\r\xdb\x86\x11'
p509
tp510
Rp511
ag1
(g5
S'\xe5v\x8a\x11'
p512
tp513
Rp514
ag1
(g5
S'\\\xed\x89\x11'
p515
tp516
Rp517
ag1
(g5
S'_\x97\x82\x11'
p518
tp519
Rp520
ag1
(g5
S'\xc2Aw\x11'
p521
tp522
Rp523
ag1
(g5
S'\xc8\x83i\x11'
p524
tp525
Rp526
ag1
(g5
S'\x86\x12\x83\x11'
p527
tp528
Rp529
ag1
(g5
S'\xed\x16\x80\x11'
p530
tp531
Rp532
ag1
(g5
S'\xb2\x97}\x11'
p533
tp534
Rp535
ag1
(g5
S'\x8eU|\x11'
p536
tp537
Rp538
ag1
(g5
S'\x1a0g\x11'
p539
tp540
Rp541
ag1
(g5
S'\xfd\xc4d\x11'
p542
tp543
Rp544
ag1
(g5
S'\x06~v\x11'
p545
tp546
Rp547
ag1
(g5
S'T4s\x11'
p548
tp549
Rp550
ag1
(g5
S'Ajt\x11'
p551
tp552
Rp553
ag1
(g5
S'J:\x80\x11'
p554
tp555
Rp556
ag1
(g5
S'\x16\xe0\x06\x11'
p557
tp558
Rp559
ag1
(g5
S'?\x1c~\x11'
p560
tp561
Rp562
ag1
(g5
S'\x85jx\x11'
p563
tp564
Rp565
ag1
(g5
S'\xddF~\x11'
p566
tp567
Rp568
ag1
(g5
S'Rau\x11'
p569
tp570
Rp571
ag1
(g5
S"\xb6'r\x11"
p572
tp573
Rp574
ag1
(g5
S'But\x11'
p575
tp576
Rp577
ag1
(g5
S'\x8d\xf7t\x11'
p578
tp579
Rp580
ag1
(g5
S'\x1b\xb2k\x11'
p581
tp582
Rp583
ag1
(g5
S'9\xf0t\x11'
p584
tp585
Rp586
ag1
(g5
S'\xd5\x13s\x11'
p587
tp588
Rp589
ag1
(g5
S'\xa9\xaa_\x11'
p590
tp591
Rp592
ag1
(g5
S'/\x07g\x11'
p593
tp594
Rp595
ag1
(g5
S'\xc1.o\x11'
p596
tp597
Rp598
ag1
(g5
S'\x16\x99g\x11'
p599
tp600
Rp601
ag1
(g5
S'H\xefk\x11'
p602
tp603
Rp604
ag1
(g5
S'h~k\x11'
p605
tp606
Rp607
ag1
(g5
S'\xdclt\x11'
p608
tp609
Rp610
ag1
(g5
S'\xdc\x8dh\x11'
p611
tp612
Rp613
ag1
(g5
S'\x9b9b\x11'
p614
tp615
Rp616
ag1
(g5
S'/\xf5W\x11'
p617
tp618
Rp619
ag1
(g5
S'\xbf\x98f\x11'
p620
tp621
Rp622
ag1
(g5
S'Sbg\x11'
p623
tp624
Rp625
ag1
(g5
S'j\x1ai\x11'
p626
tp627
Rp628
ag1
(g5
S'Jrt\x11'
p629
tp630
Rp631
ag1
(g5
S'\xfaqc\x11'
p632
tp633
Rp634
ag1
(g5
S'\x05<m\x11'
p635
tp636
Rp637
ag1
(g5
S'L\x8eh\x11'
p638
tp639
Rp640
ag1
(g5
S'N\xcac\x11'
p641
tp642
Rp643
ag1
(g5
S'8\xfem\x11'
p644
tp645
Rp646
ag1
(g5
S'\x7f3b\x11'
p647
tp648
Rp649
ag1
(g5
S'\x8fDk\x11'
p650
tp651
Rp652
ag1
(g5
S'\x11oW\x11'
p653
tp654
Rp655
ag1
(g5
S'\x96\xb1^\x11'
p656
tp657
Rp658
ag1
(g5
S'kjb\x11'
p659
tp660
Rp661
ag1
(g5
S'iiX\x11'
p662
tp663
Rp664
ag1
(g5
S'*\xb3Z\x11'
p665
tp666
Rp667
ag1
(g5
S'\x1d\xbeX\x11'
p668
tp669
Rp670
ag1
(g5
S'\xbdHS\x11'
p671
tp672
Rp673
ag1
(g5
S'\x1d\xccS\x11'
p674
tp675
Rp676
ag1
(g5
S'0\x13P\x11'
p677
tp678
Rp679
ag1
(g5
S'\x19\xcf`\x11'
p680
tp681
Rp682
ag1
(g5
S'q\x1b`\x11'
p683
tp684
Rp685
ag1
(g5
S'U\xa0d\x11'
p686
tp687
Rp688
ag1
(g5
S' ~V\x11'
p689
tp690
Rp691
ag1
(g5
S'\x022U\x11'
p692
tp693
Rp694
ag1
(g5
S'U\xc5]\x11'
p695
tp696
Rp697
ag1
(g5
S'6\xc5J\x11'
p698
tp699
Rp700
ag1
(g5
S'\xac\xc9I\x11'
p701
tp702
Rp703
ag1
(g5
S'\xe0\xbcM\x11'
p704
tp705
Rp706
ag1
(g5
S'\xd3gO\x11'
p707
tp708
Rp709
ag1
(g5
S'A\xa8N\x11'
p710
tp711
Rp712
ag1
(g5
S' }J\x11'
p713
tp714
Rp715
ag1
(g5
S'j\xebK\x11'
p716
tp717
Rp718
ag1
(g5
S'7\x8bO\x11'
p719
tp720
Rp721
ag1
(g5
S'\x01\xa9R\x11'
p722
tp723
Rp724
ag1
(g5
S'/\xbcT\x11'
p725
tp726
Rp727
ag1
(g5
S'\x97\xc2Y\x11'
p728
tp729
Rp730
ag1
(g5
S'\x8f\xb9[\x11'
p731
tp732
Rp733
ag1
(g5
S'n\xc6V\x11'
p734
tp735
Rp736
ag1
(g5
S'9\xcdN\x11'
p737
tp738
Rp739
ag1
(g5
S'q}P\x11'
p740
tp741
Rp742
ag1
(g5
S'\xbeBP\x11'
p743
tp744
Rp745
ag1
(g5
S'\x9aTC\x11'
p746
tp747
Rp748
ag1
(g5
S"'\x0e?\x11"
p749
tp750
Rp751
ag1
(g5
S'\xcdg<\x11'
p752
tp753
Rp754
ag1
(g5
S'\x16u<\x11'
p755
tp756
Rp757
ag1
(g5
S'\xe3.=\x11'
p758
tp759
Rp760
ag1
(g5
S'\x82\xe1>\x11'
p761
tp762
Rp763
ag1
(g5
S'.\x05:\x11'
p764
tp765
Rp766
ag1
(g5
S'Hf6\x11'
p767
tp768
Rp769
ag1
(g5
S'\x80C?\x11'
p770
tp771
Rp772
ag1
(g5
S'u\xb90\x11'
p773
tp774
Rp775
ag1
(g5
S'\xbc\xf1#\x11'
p776
tp777
Rp778
ag1
(g5
S'\x0e\xc1-\x11'
p779
tp780
Rp781
ag1
(g5
S'\x02\xed\x10\x11'
p782
tp783
Rp784
ag1
(g5
S'a?\x1a\x11'
p785
tp786
Rp787
ag1
(g5
S"#\xde'\x11"
p788
tp789
Rp790
ag1
(g5
S'\x8eO7\x11'
p791
tp792
Rp793
ag1
(g5
S'\xaa1:\x11'
p794
tp795
Rp796
ag1
(g5
S'\xfd\xd0*\x11'
p797
tp798
Rp799
ag1
(g5
S'A^6\x11'
p800
tp801
Rp802
ag1
(g5
S'K\xb4:\x11'
p803
tp804
Rp805
ag1
(g5
S'\x7f\xd5>\x11'
p806
tp807
Rp808
ag1
(g5
S'\xae#6\x11'
p809
tp810
Rp811
ag1
(g5
S'Ww4\x11'
p812
tp813
Rp814
ag1
(g5
S'+f+\x11'
p815
tp816
Rp817
ag1
(g5
S'\xf2\xaa-\x11'
p818
tp819
Rp820
ag1
(g5
S'\x1d\x19\x1b\x11'
p821
tp822
Rp823
ag1
(g5
S's\xfe\x14\x11'
p824
tp825
Rp826
ag1
(g5
S'G\x98\x17\x11'
p827
tp828
Rp829
ag1
(g5
S'\xe4\x1d\x15\x11'
p830
tp831
Rp832
ag1
(g5
S'%\x86\x0f\x11'
p833
tp834
Rp835
ag1
(g5
S'\x99\x95\x19\x11'
p836
tp837
Rp838
ag1
(g5
S'\x04\xe1\x13\x11'
p839
tp840
Rp841
ag1
(g5
S'[f\x0f\x11'
p842
tp843
Rp844
ag1
(g5
S's\xcf\x1f\x11'
p845
tp846
Rp847
ag1
(g5
S'\xf7b\x1a\x11'
p848
tp849
Rp850
ag1
(g5
S'\xc2\xfc\r\x11'
p851
tp852
Rp853
ag1
(g5
S'\xe9\xfe\t\x11'
p854
tp855
Rp856
ag1
(g5
S'\xeaA\x12\x11'
p857
tp858
Rp859
ag1
(g5
S'!\x85\x07\x11'
p860
tp861
Rp862
ag1
(g5
S'\xcf\xb9\x08\x11'
p863
tp864
Rp865
ag1
(g5
S'\xd0\xae\x1a\x11'
p866
tp867
Rp868
ag1
(g5
S'w\x88\xf8\x10'
p869
tp870
Rp871
ag1
(g5
S'\xe2\xe0\x01\x11'
p872
tp873
Rp874
ag1
(g5
S'\x88\x02\x06\x11'
p875
tp876
Rp877
ag1
(g5
S'HH\x07\x11'
p878
tp879
Rp880
ag1
(g5
S'\x80\x15\\\x11'
p881
tp882
Rp883
ag1
(g5
S'{1\x02\x11'
p884
tp885
Rp886
ag1
(g5
S'\xca\xd1\xfa\x10'
p887
tp888
Rp889
ag1
(g5
S'\xac\x8c\xec\x10'
p890
tp891
Rp892
ag1
(g5
S'\xab5\xe7\x10'
p893
tp894
Rp895
ag1
(g5
S'\xb1\x10\xec\x10'
p896
tp897
Rp898
ag1
(g5
S'\xdb\x00\xe3\x10'
p899
tp900
Rp901
ag1
(g5
S'\xb6\x86\xea\x10'
p902
tp903
Rp904
ag1
(g5
S'(\xb7\xdd\x10'
p905
tp906
Rp907
ag1
(g5
S'\r8\xe7\x10'
p908
tp909
Rp910
ag1
(g5
S'\\m\xe8\x10'
p911
tp912
Rp913
ag1
(g5
S'\xaa\xdcj\x11'
p914
tp915
Rp916
ag1
(g5
S'o\xf2\xe6\x10'
p917
tp918
Rp919
ag1
(g5
S'\xaa\xd9g\x11'
p920
tp921
Rp922
ag1
(g5
S'\x8a}e\x11'
p923
tp924
Rp925
ag1
(g5
S'\x95>q\x11'
p926
tp927
Rp928
ag1
(g5
S'Nj\xeb\x10'
p929
tp930
Rp931
ag1
(g5
S'\x84.b\x11'
p932
tp933
Rp934
ag1
(g5
S'2`\xe5\x10'
p935
tp936
Rp937
ag1
(g5
S'\xa7\xcf]\x11'
p938
tp939
Rp940
ag1
(g5
S'~\x0f`\x11'
p941
tp942
Rp943
ag1
(g5
S'|\xe3Y\x11'
p944
tp945
Rp946
ag1
(g5
S'6\xb3[\x11'
p947
tp948
Rp949
ag1
(g5
S'\xd9W\\\x11'
p950
tp951
Rp952
ag1
(g5
S'e\xa2R\x11'
p953
tp954
Rp955
ag1
(g5
S'Ot\xdb\x10'
p956
tp957
Rp958
ag1
(g5
S'\x8aq[\x11'
p959
tp960
Rp961
ag1
(g5
S'\xd2M\xd6\x10'
p962
tp963
Rp964
ag1
(g5
S'\x1d\xfa\xdf\x10'
p965
tp966
Rp967
ag1
(g5
S"\x19'\xe5\x10"
p968
tp969
Rp970
ag1
(g5
S']\xc1\xd4\x10'
p971
tp972
Rp973
ag1
(g5
S'Y,\xce\x10'
p974
tp975
Rp976
ag1
(g5
S'M\x83\xe2\x10'
p977
tp978
Rp979
ag1
(g5
S'S\xb0\xd2\x10'
p980
tp981
Rp982
ag1
(g5
S'G@\xe0\x10'
p983
tp984
Rp985
ag1
(g5
S'_t\xdb\x10'
p986
tp987
Rp988
ag1
(g5
S'\x08\x87\xe9\x10'
p989
tp990
Rp991
ag1
(g5
S'2 \xeb\x10'
p992
tp993
Rp994
ag1
(g5
S'o\t\xeb\x10'
p995
tp996
Rp997
ag1
(g5
S'\x90\xaa\xe4\x10'
p998
tp999
Rp1000
ag1
(g5
S'\x98\xd3\xea\x10'
p1001
tp1002
Rp1003
ag1
(g5
S'n)\xe6\x10'
p1004
tp1005
Rp1006
ag1
(g5
S'\xd4@\xd8\x10'
p1007
tp1008
Rp1009
ag1
(g5
S'\xc9\xab\xe5\x10'
p1010
tp1011
Rp1012
ag1
(g5
S'%\xc1\xd6\x10'
p1013
tp1014
Rp1015
ag1
(g5
S'mq\xdb\x10'
p1016
tp1017
Rp1018
ag1
(g5
S'\x8e\t\xe4\x10'
p1019
tp1020
Rp1021
ag1
(g5
S'\xce\x98\xd0\x10'
p1022
tp1023
Rp1024
ag1
(g5
S'\xf1\xc1L\x11'
p1025
tp1026
Rp1027
ag1
(g5
S'd\x17\xc5\x10'
p1028
tp1029
Rp1030
ag1
(g5
S'\xe8\xc0\xcb\x10'
p1031
tp1032
Rp1033
ag1
(g5
S'\xee\r\xcc\x10'
p1034
tp1035
Rp1036
ag1
(g5
S'\x99\xd6B\x11'
p1037
tp1038
Rp1039
ag1
(g5
S'\x9c\xd1\xc1\x10'
p1040
tp1041
Rp1042
ag1
(g5
S'\x8b7H\x11'
p1043
tp1044
Rp1045
ag1
(g5
S'\xe1\xcbB\x11'
p1046
tp1047
Rp1048
ag1
(g5
S'\xad\xbd9\x11'
p1049
tp1050
Rp1051
ag1
(g5
S'\x14\xa56\x11'
p1052
tp1053
Rp1054
ag1
(g5
S'\x93\xe49\x11'
p1055
tp1056
Rp1057
ag1
(g5
S'-\xbd9\x11'
p1058
tp1059
Rp1060
ag1
(g5
S'\xda\xbc\xc6\x10'
p1061
tp1062
Rp1063
ag1
(g5
S'\xf1\n\xb9\x10'
p1064
tp1065
Rp1066
ag1
(g5
S'\xe4\x13\xb6\x10'
p1067
tp1068
Rp1069
ag1
(g5
S'\xf881\x11'
p1070
tp1071
Rp1072
ag1
(g5
S'^\x94\xaf\x10'
p1073
tp1074
Rp1075
ag1
(g5
S'\xc7\xf0.\x11'
p1076
tp1077
Rp1078
ag1
(g5
S'\xe0k-\x11'
p1079
tp1080
Rp1081
ag1
(g5
S'\xe5\x83)\x11'
p1082
tp1083
Rp1084
ag1
(g5
S'A\t-\x11'
p1085
tp1086
Rp1087
ag1
(g5
S'x\x91*\x11'
p1088
tp1089
Rp1090
ag1
(g5
S'4\xc4%\x11'
p1091
tp1092
Rp1093
ag1
(g5
S'\xd9[$\x11'
p1094
tp1095
Rp1096
ag1
(g5
S't\xc2\x15\x11'
p1097
tp1098
Rp1099
ag1
(g5
S'\xbf0\x18\x11'
p1100
tp1101
Rp1102
ag1
(g5
S'\xb1\xdf\x12\x11'
p1103
tp1104
Rp1105
ag1
(g5
S'$\xad\x12\x11'
p1106
tp1107
Rp1108
ag1
(g5
S'\x13B\x0c\x11'
p1109
tp1110
Rp1111
ag1
(g5
S'0\t\r\x11'
p1112
tp1113
Rp1114
ag1
(g5
S'q\x86\r\x11'
p1115
tp1116
Rp1117
ag1
(g5
S'\xbbI\x0c\x11'
p1118
tp1119
Rp1120
ag1
(g5
S'OX\r\x11'
p1121
tp1122
Rp1123
ag1
(g5
S'\x84=\x08\x11'
p1124
tp1125
Rp1126
ag1
(g5
S'\xea9\t\x11'
p1127
tp1128
Rp1129
ag1
(g5
S'\x01P\n\x11'
p1130
tp1131
Rp1132
ag1
(g5
S'\xcc_\x07\x11'
p1133
tp1134
Rp1135
ag1
(g5
S'\xe7\xa7\x8f\x10'
p1136
tp1137
Rp1138
ag1
(g5
S'\xe2\xbb\x88\x10'
p1139
tp1140
Rp1141
ag1
(g5
S'\xf4&\x8d\x10'
p1142
tp1143
Rp1144
ag1
(g5
S'~\xbe\x84\x10'
p1145
tp1146
Rp1147
ag1
(g5
S'\xa3\xe0\x87\x10'
p1148
tp1149
Rp1150
ag1
(g5
S'\x06\x8e\x7f\x10'
p1151
tp1152
Rp1153
ag1
(g5
S'\x81\xb7\x82\x10'
p1154
tp1155
Rp1156
ag1
(g5
S'&\xd3~\x10'
p1157
tp1158
Rp1159
ag1
(g5
S'^,x\x10'
p1160
tp1161
Rp1162
ag1
(g5
S'bZx\x10'
p1163
tp1164
Rp1165
ag1
(g5
S'\xf8\x1eq\x10'
p1166
tp1167
Rp1168
ag1
(g5
S'\xf0\xa2p\x10'
p1169
tp1170
Rp1171
ag1
(g5
S'\x1cum\x10'
p1172
tp1173
Rp1174
ag1
(g5
S'n=g\x10'
p1175
tp1176
Rp1177
ag1
(g5
S'~&d\x10'
p1178
tp1179
Rp1180
ag1
(g5
S'\xb5\x03i\x10'
p1181
tp1182
Rp1183
ag1
(g5
S'2\x84Z\x10'
p1184
tp1185
Rp1186
ag1
(g5
S'K\x99_\x10'
p1187
tp1188
Rp1189
ag1
(g5
S'\xcd\x9bR\x10'
p1190
tp1191
Rp1192
ag1
(g5
S'J\xa8P\x10'
p1193
tp1194
Rp1195
ag1
(g5
S'\xe5eG\x10'
p1196
tp1197
Rp1198
ag1
(g5
S'\xdb\t=\x10'
p1199
tp1200
Rp1201
ag1
(g5
S'\x13\x8f5\x10'
p1202
tp1203
Rp1204
ag1
(g5
S'\x1d\xbc8\x10'
p1205
tp1206
Rp1207
ag1
(g5
S'\xca\xef6\x10'
p1208
tp1209
Rp1210
ag1
(g5
S'n\xa6"\x10'
p1211
tp1212
Rp1213
ag1
(g5
S'Y\xea\x9c\x10'
p1214
tp1215
Rp1216
ag1
(g5
S'\xb0\\5\x10'
p1217
tp1218
Rp1219
ag1
(g5
S'R\x9c2\x10'
p1220
tp1221
Rp1222
ag1
(g5
S'sk\x1c\x10'
p1223
tp1224
Rp1225
ag1
(g5
S'J\x7f#\x10'
p1226
tp1227
Rp1228
ag1
(g5
S'\xbew\x17\x10'
p1229
tp1230
Rp1231
ag1
(g5
S"|8'\x10"
p1232
tp1233
Rp1234
ag1
(g5
S'Rd\x11\x10'
p1235
tp1236
Rp1237
ag1
(g5
S'\x99_}\x10'
p1238
tp1239
Rp1240
ag1
(g5
S'\xef\x0ez\x10'
p1241
tp1242
Rp1243
ag1
(g5
S'hps\x10'
p1244
tp1245
Rp1246
ag1
(g5
S'\x85\xeag\x10'
p1247
tp1248
Rp1249
ag1
(g5
S'7\xd2s\x10'
p1250
tp1251
Rp1252
ag1
(g5
S';\xecj\x10'
p1253
tp1254
Rp1255
ag1
(g5
S'\x0fEN\x10'
p1256
tp1257
Rp1258
ag1
(g5
S'\xe5\xa6X\x10'
p1259
tp1260
Rp1261
ag1
(g5
S'\x8b\x9a^\x10'
p1262
tp1263
Rp1264
ag1
(g5
S'\xff\xbbV\x10'
p1265
tp1266
Rp1267
ag1
(g5
S'\xc0$W\x10'
p1268
tp1269
Rp1270
ag1
(g5
S'\x1c*O\x10'
p1271
tp1272
Rp1273
ag1
(g5
S'\xd9\xd1N\x10'
p1274
tp1275
Rp1276
ag1
(g5
S'\x95\xcf9\x10'
p1277
tp1278
Rp1279
ag1
(g5
S'\xc9\x1d:\x10'
p1280
tp1281
Rp1282
ag1
(g5
S'\xcdk:\x10'
p1283
tp1284
Rp1285
ag1
(g5
S'\xd8d&\x10'
p1286
tp1287
Rp1288
ag1
(g5
S'\xe3\xbb!\x10'
p1289
tp1290
Rp1291
ag1
(g5
S'\x10\x17-\x10'
p1292
tp1293
Rp1294
ag1
(g5
S'\xcc\xc2\x1e\x10'
p1295
tp1296
Rp1297
ag1
(g5
S'\xfa\xef%\x10'
p1298
tp1299
Rp1300
ag1
(g5
S'Pp\x11\x10'
p1301
tp1302
Rp1303
ag1
(g5
S'\x10\x98\x15\x10'
p1304
tp1305
Rp1306
ag1
(g5
S'Fn\xfb\x0f'
p1307
tp1308
Rp1309
ag1
(g5
S'\x1dn\xf6\x0f'
p1310
tp1311
Rp1312
ag1
(g5
S'\xad\xa4\xf7\x0f'
p1313
tp1314
Rp1315
ag1
(g5
S'\tU\xe6\x0f'
p1316
tp1317
Rp1318
ag1
(g5
S'\xc0\xdb\xd4\x0f'
p1319
tp1320
Rp1321
ag1
(g5
S'\xc8\x9b\xd1\x0f'
p1322
tp1323
Rp1324
ag1
(g5
S'a\x8b\xd9\x0f'
p1325
tp1326
Rp1327
ag1
(g5
S'1{\xc7\x0f'
p1328
tp1329
Rp1330
ag1
(g5
S'a\x1b\xca\x0f'
p1331
tp1332
Rp1333
ag1
(g5
S'\x85D\xc5\x0f'
p1334
tp1335
Rp1336
ag1
(g5
S'8\xd6\xc3\x0f'
p1337
tp1338
Rp1339
ag1
(g5
S'\x19\x14\xbc\x0f'
p1340
tp1341
Rp1342
ag1
(g5
S'Nyt\x0f'
p1343
tp1344
Rp1345
ag1
(g5
S'M\xe4{\x0f'
p1346
tp1347
Rp1348
ag1
(g5
S')^~\x0f'
p1349
tp1350
Rp1351
ag1
(g5
S'h\xe6\x80\x0f'
p1352
tp1353
Rp1354
ag1
(g5
S'\xb6fj\x0f'
p1355
tp1356
Rp1357
ag1
(g5
S'\xcdB\x7f\x0f'
p1358
tp1359
Rp1360
ag1
(g5
S'\xf5\xefa\x0f'
p1361
tp1362
Rp1363
ag1
(g5
S'\xedS\xbf\x0f'
p1364
tp1365
Rp1366
ag1
(g5
S'\xa68\xc8\x0f'
p1367
tp1368
Rp1369
ag1
(g5
S'v\xc1\xc9\x0f'
p1370
tp1371
Rp1372
ag1
(g5
S'\xbb3\x99\x0f'
p1373
tp1374
Rp1375
ag1
(g5
S'\xf1}\x97\x0f'
p1376
tp1377
Rp1378
ag1
(g5
S'\x8d2\x9d\x0f'
p1379
tp1380
Rp1381
ag1
(g5
S'H\x83\x9e\x0f'
p1382
tp1383
Rp1384
ag1
(g5
S'siy\x0f'
p1385
tp1386
Rp1387
ag1
(g5
S'\xfdX\x8d\x0f'
p1388
tp1389
Rp1390
ag1
(g5
S'bq{\x0f'
p1391
tp1392
Rp1393
ag1
(g5
S'`\xa5Y\x0f'
p1394
tp1395
Rp1396
ag1
(g5
S'\xb1\x96N\x0f'
p1397
tp1398
Rp1399
ag1
(g5
S'\xdc\xfc_\x0f'
p1400
tp1401
Rp1402
ag1
(g5
S'\xc4\xeb9\x0f'
p1403
tp1404
Rp1405
ag1
(g5
S'k\x95>\x0f'
p1406
tp1407
Rp1408
ag1
(g5
S'\xee\xa0\x19\x0f'
p1409
tp1410
Rp1411
ag1
(g5
S'\xcf\xa3/\x0f'
p1412
tp1413
Rp1414
ag1
(g5
S'v\xca\x04\x0f'
p1415
tp1416
Rp1417
ag1
(g5
S'\x0b*\x13\x0f'
p1418
tp1419
Rp1420
ag1
(g5
S'\x04\xb7\x12\x0f'
p1421
tp1422
Rp1423
ag1
(g5
S'\xf0\xd2\xe1\x0e'
p1424
tp1425
Rp1426
ag1
(g5
S'\xa8\x87.\x0f'
p1427
tp1428
Rp1429
ag1
(g5
S'~OT\x0f'
p1430
tp1431
Rp1432
ag1
(g5
S'7~#\x0f'
p1433
tp1434
Rp1435
ag1
(g5
S'D\xb7*\x0f'
p1436
tp1437
Rp1438
ag1
(g5
S'\x0c\x8e\x1f\x0f'
p1439
tp1440
Rp1441
ag1
(g5
S'\xdf=\xfa\x0e'
p1442
tp1443
Rp1444
ag1
(g5
S'>,\xf4\x0e'
p1445
tp1446
Rp1447
ag1
(g5
S'E\xe5\xe2\x0e'
p1448
tp1449
Rp1450
ag1
(g5
S'\xf7\xc4\xdc\x0e'
p1451
tp1452
Rp1453
ag1
(g5
S'C\xae\xc4\x0e'
p1454
tp1455
Rp1456
ag1
(g5
S'41\x1e\x0f'
p1457
tp1458
Rp1459
ag1
(g5
S'\xd9n\x03\x0f'
p1460
tp1461
Rp1462
ag1
(g5
S'\xb8v\xf4\x0e'
p1463
tp1464
Rp1465
ag1
(g5
S'\x90\x11\xe6\x0e'
p1466
tp1467
Rp1468
ag1
(g5
S'\x18\xb3\xd8\x0e'
p1469
tp1470
Rp1471
ag1
(g5
S'1C\xce\x0e'
p1472
tp1473
Rp1474
ag1
(g5
S'\xf3^\xbc\x0e'
p1475
tp1476
Rp1477
ag1
(g5
S'3\xc6\xb5\x0e'
p1478
tp1479
Rp1480
ag1
(g5
S'Tf\x9d\x0e'
p1481
tp1482
Rp1483
ag1
(g5
S'\x08)\xef\x0e'
p1484
tp1485
Rp1486
ag1
(g5
S'\xc0}\xd1\x0e'
p1487
tp1488
Rp1489
ag1
(g5
S'\xfeU\xc2\x0e'
p1490
tp1491
Rp1492
ag1
(g5
S'\xd6G\xba\x0e'
p1493
tp1494
Rp1495
ag1
(g5
S'\x12v\xa7\x0e'
p1496
tp1497
Rp1498
ag1
(g5
S'}\xab\x96\x0e'
p1499
tp1500
Rp1501
ag1
(g5
S'\x90\x83\xd6\x0e'
p1502
tp1503
Rp1504
ag1
(g5
S'/]\xc4\x0e'
p1505
tp1506
Rp1507
ag1
(g5
S';"\xb8\x0e'
p1508
tp1509
Rp1510
ag1
(g5
S'I\x03\xa8\x0e'
p1511
tp1512
Rp1513
ag1
(g5
S'\xf9s\x89\x0e'
p1514
tp1515
Rp1516
ag1
(g5
S'I\xa6\x7f\x0e'
p1517
tp1518
Rp1519
ag1
(g5
S's\xf2\xbc\x0e'
p1520
tp1521
Rp1522
ag1
(g5
S's\x00\x9e\x0e'
p1523
tp1524
Rp1525
ag1
(g5
S'\xe3\xb0\x92\x0e'
p1526
tp1527
Rp1528
ag1
(g5
S'=\xfdr\x0e'
p1529
tp1530
Rp1531
ag1
(g5
S'g~h\x0e'
p1532
tp1533
Rp1534
ag1
(g5
S'\xab<C\x0e'
p1535
tp1536
Rp1537
ag1
(g5
S'<\x13}\x0e'
p1538
tp1539
Rp1540
ag1
(g5
S',.i\x0e'
p1541
tp1542
Rp1543
ag1
(g5
S'\xc9\xa1V\x0e'
p1544
tp1545
Rp1546
ag1
(g5
S'\x832\x85\x0e'
p1547
tp1548
Rp1549
ag1
(g5
S']Kl\x0e'
p1550
tp1551
Rp1552
ag1
(g5
S'\x12\xbbP\x0e'
p1553
tp1554
Rp1555
ag1
(g5
S'T\xdb~\x0e'
p1556
tp1557
Rp1558
ag1
(g5
S'H\xac`\x0e'
p1559
tp1560
Rp1561
ag1
(g5
S'S\xbdD\x0e'
p1562
tp1563
Rp1564
ag1
(g5
S'\x12kc\x0e'
p1565
tp1566
Rp1567
ag1
(g5
S'\xb1iA\x0e'
p1568
tp1569
Rp1570
ag1
(g5
S'x\xe1&\x0e'
p1571
tp1572
Rp1573
ag1
(g5
S'\xc8\xf0@\x0e'
p1574
tp1575
Rp1576
ag1
(g5
S'\xa3\x83X\x0e'
p1577
tp1578
Rp1579
ag1
(g5
S'1\xa54\x0e'
p1580
tp1581
Rp1582
ag1
(g5
S'\x13\xc9z\x0e'
p1583
tp1584
Rp1585
ag1
(g5
S'\x9b\x88\x88\x0e'
p1586
tp1587
Rp1588
ag1
(g5
S'\xbc\xfd\x86\x0e'
p1589
tp1590
Rp1591
ag1
(g5
S'\x9d\xba}\x0e'
p1592
tp1593
Rp1594
ag1
(g5
S'Ua\\\x0e'
p1595
tp1596
Rp1597
ag1
(g5
S'%^D\x0e'
p1598
tp1599
Rp1600
ag1
(g5
S'\xb9q/\x0e'
p1601
tp1602
Rp1603
ag1
(g5
S'v@\x1d\x0e'
p1604
tp1605
Rp1606
ag1
(g5
S'h;\x06\x0e'
p1607
tp1608
Rp1609
ag1
(g5
S'x]\xf7\r'
p1610
tp1611
Rp1612
ag1
(g5
S'#\xc0\xdd\r'
p1613
tp1614
Rp1615
ag1
(g5
S'\x18\x01\xff\r'
p1616
tp1617
Rp1618
ag1
(g5
S'\r\xa2\x0c\x0e'
p1619
tp1620
Rp1621
ag1
(g5
S')7\xc0\r'
p1622
tp1623
Rp1624
ag1
(g5
S'\xa1\xdc\x9a\r'
p1625
tp1626
Rp1627
ag1
(g5
S'P\x04\x97\r'
p1628
tp1629
Rp1630
ag1
(g5
S'\x1a\xf8\x94\r'
p1631
tp1632
Rp1633
ag1
(g5
S'\xa81\x95\r'
p1634
tp1635
Rp1636
ag1
(g5
S'_\xa6\xb0\r'
p1637
tp1638
Rp1639
ag1
(g5
S'\xc8\xae\xa1\r'
p1640
tp1641
Rp1642
ag1
(g5
S'Y\x18\x90\r'
p1643
tp1644
Rp1645
ag1
(g5
S'F1t\r'
p1646
tp1647
Rp1648
ag1
(g5
S'@\x9bs\r'
p1649
tp1650
Rp1651
ag1
(g5
S'\xb6\xb0f\r'
p1652
tp1653
Rp1654
ag1
(g5
S'\xf9\x93X\r'
p1655
tp1656
Rp1657
ag1
(g5
S'\xdc\x907\r'
p1658
tp1659
Rp1660
ag1
(g5
S'w\x91\r\r'
p1661
tp1662
Rp1663
ag1
(g5
S'\xba\x99J\r'
p1664
tp1665
Rp1666
ag1
(g5
S'@_8\r'
p1667
tp1668
Rp1669
ag1
(g5
S'\xdd\x031\r'
p1670
tp1671
Rp1672
ag1
(g5
S'\x8f{=\r'
p1673
tp1674
Rp1675
ag1
(g5
S'\xe3\xe1N\r'
p1676
tp1677
Rp1678
ag1
(g5
S'\x1bcc\r'
p1679
tp1680
Rp1681
ag1
(g5
S'\xc0\r\xfb\x0c'
p1682
tp1683
Rp1684
ag1
(g5
S'X|\x03\r'
p1685
tp1686
Rp1687
ag1
(g5
S'\xa1\x91\xb0\x0c'
p1688
tp1689
Rp1690
ag1
(g5
S'FC\xba\x0c'
p1691
tp1692
Rp1693
ag1
(g5
S'X\xb7\xae\x0c'
p1694
tp1695
Rp1696
ag1
(g5
S'o\x10\xb5\x0c'
p1697
tp1698
Rp1699
ag1
(g5
S'\xb7\xebr\x0c'
p1700
tp1701
Rp1702
ag1
(g5
S'\x9f\xa2~\x0c'
p1703
tp1704
Rp1705
ag1
(g5
S'\x16\x85w\x0c'
p1706
tp1707
Rp1708
ag1
(g5
S'\xc5\xa8K\x0c'
p1709
tp1710
Rp1711
ag1
(g5
S'S\xd4V\x0c'
p1712
tp1713
Rp1714
ag1
(g5
S'\xe7\xb7N\x0c'
p1715
tp1716
Rp1717
ag1
(g5
S'aq0\x0c'
p1718
tp1719
Rp1720
ag1
(g5
S'\xf6>4\x0c'
p1721
tp1722
Rp1723
ag1
(g5
S'\x81\xbd!\x0c'
p1724
tp1725
Rp1726
ag1
(g5
S'\xc7u\xd3\x0c'
p1727
tp1728
Rp1729
ag1
(g5
S',\xcf\xcd\x0c'
p1730
tp1731
Rp1732
ag1
(g5
S'T?\xd7\x0c'
p1733
tp1734
Rp1735
ag1
(g5
S'\xac \xd6\x0c'
p1736
tp1737
Rp1738
ag1
(g5
S'\x89\x90\xd8\x0c'
p1739
tp1740
Rp1741
ag1
(g5
S'\x01\xd5\xbf\x0c'
p1742
tp1743
Rp1744
ag1
(g5
S'\xbf\xa9\xc5\x0c'
p1745
tp1746
Rp1747
ag1
(g5
S'u\xeb\xc7\x0c'
p1748
tp1749
Rp1750
ag1
(g5
S'\xc4\xca\xb2\x0c'
p1751
tp1752
Rp1753
ag1
(g5
S'v\x1d\xb2\x0c'
p1754
tp1755
Rp1756
ag1
(g5
S'\xe0\xb7\xbb\x0c'
p1757
tp1758
Rp1759
ag1
(g5
S'\xc4\\\xe4\x0c'
p1760
tp1761
Rp1762
ag1
(g5
S'C\x00 \r'
p1763
tp1764
Rp1765
ag1
(g5
S'\xa0\x0f\t\r'
p1766
tp1767
Rp1768
ag1
(g5
S'q=-\r'
p1769
tp1770
Rp1771
ag1
(g5
S'i\xe4\xe4\x0c'
p1772
tp1773
Rp1774
ag1
(g5
S'\x03~\xe0\x0c'
p1775
tp1776
Rp1777
ag1
(g5
S'\x14\xcc\xd6\x0c'
p1778
tp1779
Rp1780
ag1
(g5
S'q,\xd0\x0c'
p1781
tp1782
Rp1783
ag1
(g5
S'\xd7|\xd2\x0c'
p1784
tp1785
Rp1786
ag1
(g5
S'\x95\xdd\xb9\x0c'
p1787
tp1788
Rp1789
ag1
(g5
S'\xd6\xe2\xa8\x0c'
p1790
tp1791
Rp1792
ag1
(g5
S'\x14"\xb9\x0c'
p1793
tp1794
Rp1795
ag1
(g5
S'4\x0bW\x0c'
p1796
tp1797
Rp1798
ag1
(g5
S'\xec(U\x0c'
p1799
tp1800
Rp1801
ag1
(g5
S'\x8e\xeaS\x0c'
p1802
tp1803
Rp1804
ag1
(g5
S'\xd7\x1dE\x0c'
p1805
tp1806
Rp1807
ag1
(g5
S'\xd2\x0c\xec\x0b'
p1808
tp1809
Rp1810
ag1
(g5
S'\xed[=\x0c'
p1811
tp1812
Rp1813
ag1
(g5
S'u/\xf7\x0b'
p1814
tp1815
Rp1816
ag1
(g5
S'\xe3\xa8!\x0c'
p1817
tp1818
Rp1819
ag1
(g5
S'\xf7\xf2L\x0c'
p1820
tp1821
Rp1822
ag1
(g5
S'U2P\x0c'
p1823
tp1824
Rp1825
ag1
(g5
S'\x97\xbc>\x0c'
p1826
tp1827
Rp1828
ag1
(g5
S'xE\\\x0c'
p1829
tp1830
Rp1831
ag1
(g5
S'\xcf\x07\xf9\x0b'
p1832
tp1833
Rp1834
ag1
(g5
S'O\xb5p\x0c'
p1835
tp1836
Rp1837
ag1
(g5
S'\x9dM4\x0c'
p1838
tp1839
Rp1840
ag1
(g5
S'8]4\x0c'
p1841
tp1842
Rp1843
ag1
(g5
S'\xba\xf8G\x0c'
p1844
tp1845
Rp1846
ag1
(g5
S'\x92"\x14\x0c'
p1847
tp1848
Rp1849
ag1
(g5
S'\xde\x85"\x0c'
p1850
tp1851
Rp1852
ag1
(g5
S'6yt\x0b'
p1853
tp1854
Rp1855
ag1
(g5
S'\xf2\xca;\x0b'
p1856
tp1857
Rp1858
ag1
(g5
S'\x17)\xd3\n'
p1859
tp1860
Rp1861
ag1
(g5
S'h\xf13\n'
p1862
tp1863
Rp1864
ag1
(g5
S'\x91\xa3P\n'
p1865
tp1866
Rp1867
ag1
(g5
S'\xf0!\xd9\x08'
p1868
tp1869
Rp1870
ag1
(g5
S'k\xbd\xf5\x07'
p1871
tp1872
Rp1873
ag1
(g5
S'\\\xb9.\x08'
p1874
tp1875
Rp1876
ag1
(g5
S'?\xaa\x97\x06'
p1877
tp1878
Rp1879
ag1
(g5
S'\x10"\x14\x06'
p1880
tp1881
Rp1882
ag1
(g5
S'0\xd4\x0b\x05'
p1883
tp1884
Rp1885
ag1
(g5
S'\xdag\x06\x05'
p1886
tp1887
Rp1888
ag1
(g5
S'\xc8\x13S\x04'
p1889
tp1890
Rp1891
ag1
(g5
S'\xec?\xd7\x03'
p1892
tp1893
Rp1894
ag1
(g5
S'\x89\xa0Q\x03'
p1895
tp1896
Rp1897
ag1
(g5
S'\xff\x12\xe7\x02'
p1898
tp1899
Rp1900
ag1
(g5
S'\x82\xdf^\x02'
p1901
tp1902
Rp1903
ag1
(g5
S'Y/\x03\x02'
p1904
tp1905
Rp1906
ag1
(g5
S')\x1a\xac\x01'
p1907
tp1908
Rp1909
ag1
(g5
S'l\x1eu\x01'
p1910
tp1911
Rp1912
ag1
(g5
S'^8T\x01'
p1913
tp1914
Rp1915
ag1
(g5
S'\xd3\r1\x01'
p1916
tp1917
Rp1918
ag1
(g5
S'\xb16\x13\x01'
p1919
tp1920
Rp1921
ag1
(g5
S'\xff\xdf\xe5\x00'
p1922
tp1923
Rp1924
ag1
(g5
S'\xcb\xeb\xd0\x00'
p1925
tp1926
Rp1927
ag1
(g5
S'\xc2\x01\xb5\x00'
p1928
tp1929
Rp1930
ag1
(g5
S'Yv\xac\x00'
p1931
tp1932
Rp1933
ag1
(g5
S';\x88\x9c\x00'
p1934
tp1935
Rp1936
ag1
(g5
S'\xf0\xb8\x8d\x00'
p1937
tp1938
Rp1939
ag1
(g5
S'\x03\x87w\x00'
p1940
tp1941
Rp1942
ag1
(g5
S'mSm\x00'
p1943
tp1944
Rp1945
ag1
(g5
S'\xef4k\x00'
p1946
tp1947
Rp1948
ag1
(g5
S'\xcb%b\x00'
p1949
tp1950
Rp1951
ag1
(g5
S'\xf0\xabk\x00'
p1952
tp1953
Rp1954
ag1
(g5
S'z\xf4P\x00'
p1955
tp1956
Rp1957
ag1
(g5
S'\xcc\x0cL\x00'
p1958
tp1959
Rp1960
ag1
(g5
S'W\xe5Q\x00'
p1961
tp1962
Rp1963
ag1
(g5
S'\x14IN\x00'
p1964
tp1965
Rp1966
ag1
(g5
S'O\xfa=\x00'
p1967
tp1968
Rp1969
ag1
(g5
S'\xb7\xaeJ\x00'
p1970
tp1971
Rp1972
ag1
(g5
S'\x83,I\x00'
p1973
tp1974
Rp1975
ag1
(g5
S'\x8b#7\x00'
p1976
tp1977
Rp1978
ag1
(g5
S'9\x9cK\x00'
p1979
tp1980
Rp1981
ag1
(g5
S's`U\x00'
p1982
tp1983
Rp1984
ag1
(g5
S'BI5\x00'
p1985
tp1986
Rp1987
ag1
(g5
S'\xe8\xd82\x00'
p1988
tp1989
Rp1990
ag1
(g5
S'h6@\x00'
p1991
tp1992
Rp1993
ag1
(g5
S'\x9b\xad7\x00'
p1994
tp1995
Rp1996
ag1
(g5
S'\xa3P<\x00'
p1997
tp1998
Rp1999
ag1
(g5
S'\x92\x1aE\x00'
p2000
tp2001
Rp2002
ag1
(g5
S'\xd7\x81<\x00'
p2003
tp2004
Rp2005
ag1
(g5
S'\xf8\x8d@\x00'
p2006
tp2007
Rp2008
ag1
(g5
S'\xc4\xcb/\x00'
p2009
tp2010
Rp2011
ag1
(g5
S'\x9d\xaf2\x00'
p2012
tp2013
Rp2014
ag1
(g5
S'7aU\x00'
p2015
tp2016
Rp2017
ag1
(g5
S'3\r;\x00'
p2018
tp2019
Rp2020
ag1
(g5
S'\x83k,\x00'
p2021
tp2022
Rp2023
ag1
(g5
S'7\x00&\x00'
p2024
tp2025
Rp2026
ag1
(g5
S'5\x9d-\x00'
p2027
tp2028
Rp2029
ag1
(g5
S'gZx\x00'
p2030
tp2031
Rp2032
ag1
(g5
S'\x8f\xb5N\x00'
p2033
tp2034
Rp2035
ag1
(g5
S'\x00B3\x00'
p2036
tp2037
Rp2038
ag1
(g5
S'~\xb9:\x00'
p2039
tp2040
Rp2041
ag1
(g5
S'\x84/8\x00'
p2042
tp2043
Rp2044
ag1
(g5
S'\xc3\x96+\x00'
p2045
tp2046
Rp2047
ag1
(g5
S'\x9e\x8c7\x00'
p2048
tp2049
Rp2050
ag1
(g5
S'\x97F/\x00'
p2051
tp2052
Rp2053
ag1
(g5
S'\x18\x05)\x00'
p2054
tp2055
Rp2056
ag1
(g5
S'\x12\xfb-\x00'
p2057
tp2058
Rp2059
ag1
(g5
S'\xe5\x07(\x00'
p2060
tp2061
Rp2062
ag1
(g5
S'\xfe\x9f\x1e\x00'
p2063
tp2064
Rp2065
ag1
(g5
S'_\xa6,\x00'
p2066
tp2067
Rp2068
ag1
(g5
S'\xc7\xe3\x1f\x00'
p2069
tp2070
Rp2071
ag1
(g5
S'{x4\x00'
p2072
tp2073
Rp2074
ag1
(g5
S'V\\\x1c\x00'
p2075
tp2076
Rp2077
ag1
(g5
S'\\6&\x00'
p2078
tp2079
Rp2080
ag1
(g5
S'\x90\x94$\x00'
p2081
tp2082
Rp2083
ag1
(g5
S'$\x8b\xde\x00'
p2084
tp2085
Rp2086
ag1
(g5
S'\xe7\x11\xe0\x00'
p2087
tp2088
Rp2089
ag1
(g5
S'\xbe]\xd2\x00'
p2090
tp2091
Rp2092
ag1
(g5
S'G\xbe\xfb\x01'
p2093
tp2094
Rp2095
ag1
(g5
S'\xe1\xa6\xd7\x00'
p2096
tp2097
Rp2098
a.